; Function Attrs: mustprogress nofree norecurse nosync nounwind willreturn memory(read, inaccessiblemem: none) uwtable
define dso_local noundef zeroext i1 @_ZNK8cmTarget17CanCompileSourcesEv(ptr noundef nonnull readonly align 8 captures(none) dereferenceable(8) %0) local_unnamed_addr #6 align 2 {
  %2 = load ptr, ptr %0, align 8, !tbaa !22
  %3 = getelementptr inbounds nuw i8, ptr %2, i64 256
  %4 = load i32, ptr %3, align 8, !tbaa !219
  %.off.i.i = add i32 %4, -2
  %switch.i.i = icmp ult i32 %.off.i.i, 3
  br i1 %switch.i.i, label %_ZNK8cmTarget11IsSyntheticEv.exit, label %5

5:                                                ; preds = %1
  %cond = icmp eq i32 %4, 1
  br i1 %cond, label %_ZNK8cmTarget11IsSyntheticEv.exit, label %6

6:                                                ; preds = %5
  %7 = load i32, ptr %2, align 8, !tbaa !24
  %switch = icmp ult i32 %7, 5
  br label %_ZNK8cmTarget11IsSyntheticEv.exit

_ZNK8cmTarget11IsSyntheticEv.exit:                ; preds = %5, %6, %1
  %.0 = phi i1 [ false, %1 ], [ %switch, %6 ], [ true, %5 ]
  ret i1 %.0
}